; Function Attrs: mustprogress nounwind uwtable
define hidden void @_ZN7datalog11rel_contextD2Ev(ptr noundef nonnull align 8 dereferenceable(432) %this) unnamed_addr #4 align 2 personality ptr @__gxx_personality_v0 {
entry:
  store ptr getelementptr inbounds ({ [47 x ptr] }, ptr @_ZTVN7datalog11rel_contextE, i64 0, i32 0, i64 2), ptr %this, align 8
  %m_last_result_relation = getelementptr inbounds i8, ptr %this, i64 280
  %0 = load ptr, ptr %m_last_result_relation, align 8
  %tobool.not = icmp eq ptr %0, null
  br i1 %tobool.not, label %if.end, label %if.then

if.then:                                          ; preds = %entry
  %vtable = load ptr, ptr %0, align 8
  %vfn = getelementptr inbounds i8, ptr %vtable, i64 16
  %1 = load ptr, ptr %vfn, align 8
  invoke void %1(ptr noundef nonnull align 8 dereferenceable(28) %0)
          to label %invoke.cont unwind label %terminate.lpad

invoke.cont:                                      ; preds = %if.then
  store ptr null, ptr %m_last_result_relation, align 8
  br label %if.end

if.end:                                           ; preds = %invoke.cont, %entry
  %m_code = getelementptr inbounds i8, ptr %this, i64 408
  tail call void @_ZN7datalog17instruction_blockD1Ev(ptr noundef nonnull align 8 dereferenceable(16) %m_code) #19
  %m_ectx = getelementptr inbounds i8, ptr %this, i64 296
  tail call void @_ZN7datalog17execution_contextD1Ev(ptr noundef nonnull align 8 dereferenceable(108) %m_ectx) #19
  %m_table_facts = getelementptr inbounds i8, ptr %this, i64 288
  %2 = load ptr, ptr %m_table_facts, align 8
  %tobool.not.i.i = icmp eq ptr %2, null
  br i1 %tobool.not.i.i, label %_ZN6vectorISt4pairIP9func_declN7datalog13relation_factEELb1EjED2Ev.exit, label %if.then.i.i

if.then.i.i:                                      ; preds = %if.end
  invoke void @_ZN6vectorISt4pairIP9func_declN7datalog13relation_factEELb1EjE16destroy_elementsEv(ptr noundef nonnull align 8 dereferenceable(8) %m_table_facts)
          to label %.noexc.i unwind label %terminate.lpad.i

.noexc.i:                                         ; preds = %if.then.i.i
  %3 = load ptr, ptr %m_table_facts, align 8
  %add.ptr.i.i.i = getelementptr inbounds i8, ptr %3, i64 -8
  invoke void @_ZN6memory10deallocateEPv(ptr noundef nonnull %add.ptr.i.i.i)
          to label %_ZN6vectorISt4pairIP9func_declN7datalog13relation_factEELb1EjED2Ev.exit unwind label %terminate.lpad.i

terminate.lpad.i:                                 ; preds = %.noexc.i, %if.then.i.i
  %4 = landingpad { ptr, i32 }
          catch ptr null
  %5 = extractvalue { ptr, i32 } %4, 0
  tail call void @__clang_call_terminate(ptr %5) #20
  unreachable

_ZN6vectorISt4pairIP9func_declN7datalog13relation_factEELb1EjED2Ev.exit: ; preds = %if.end, %.noexc.i
  %m_answer = getelementptr inbounds i8, ptr %this, i64 264
  %6 = load ptr, ptr %m_answer, align 8
  %tobool.not.i.i1 = icmp eq ptr %6, null
  br i1 %tobool.not.i.i1, label %_ZN7obj_refI4expr11ast_managerED2Ev.exit, label %if.then.i.i.i

if.then.i.i.i:                                    ; preds = %_ZN6vectorISt4pairIP9func_declN7datalog13relation_factEELb1EjED2Ev.exit
  %m_manager.i.i = getelementptr inbounds i8, ptr %this, i64 272
  %7 = load ptr, ptr %m_manager.i.i, align 8
  %m_ref_count.i.i.i.i = getelementptr inbounds i8, ptr %6, i64 8
  %8 = load i32, ptr %m_ref_count.i.i.i.i, align 4
  %dec.i.i.i.i = add i32 %8, -1
  store i32 %dec.i.i.i.i, ptr %m_ref_count.i.i.i.i, align 4
  %cmp.i.i.i = icmp eq i32 %dec.i.i.i.i, 0
  br i1 %cmp.i.i.i, label %if.then2.i.i.i, label %_ZN7obj_refI4expr11ast_managerED2Ev.exit

if.then2.i.i.i:                                   ; preds = %if.then.i.i.i
  invoke void @_ZN11ast_manager11delete_nodeEP3ast(ptr noundef nonnull align 8 dereferenceable(976) %7, ptr noundef nonnull %6)
          to label %_ZN7obj_refI4expr11ast_managerED2Ev.exit unwind label %terminate.lpad.i2

terminate.lpad.i2:                                ; preds = %if.then2.i.i.i
  %9 = landingpad { ptr, i32 }
          catch ptr null
  %10 = extractvalue { ptr, i32 } %9, 0
  tail call void @__clang_call_terminate(ptr %10) #20
  unreachable

_ZN7obj_refI4expr11ast_managerED2Ev.exit:         ; preds = %_ZN6vectorISt4pairIP9func_declN7datalog13relation_factEELb1EjED2Ev.exit, %if.then.i.i.i, %if.then2.i.i.i
  %m_rmanager = getelementptr inbounds i8, ptr %this, i64 64
  tail call void @_ZN7datalog16relation_managerD1Ev(ptr noundef nonnull align 8 dereferenceable(200) %m_rmanager) #19
  store ptr getelementptr inbounds ({ [26 x ptr] }, ptr @_ZTVN7datalog11engine_baseE, i64 0, i32 0, i64 2), ptr %this, align 8
  %m_name.i.i = getelementptr inbounds i8, ptr %this, i64 16
  tail call void @_ZNSt7__cxx1112basic_stringIcSt11char_traitsIcESaIcEED1Ev(ptr noundef nonnull align 8 dereferenceable(32) %m_name.i.i) #19
  ret void

terminate.lpad:                                   ; preds = %if.then
  %11 = landingpad { ptr, i32 }
          catch ptr null
  %12 = extractvalue { ptr, i32 } %11, 0
  tail call void @__clang_call_terminate(ptr %12) #20
  unreachable
}